target datalayout = "e-m:e-p270:32:32-p271:32:32-p272:64:64-i64:64-i128:128-f80:128-n8:16:32:64-S128"
target triple = "x86_64-pc-linux-gnu"

%struct.asn1_object_st = type { ptr, ptr, i32, i32, ptr, i32 }

@.str = private unnamed_addr constant [126 x i8] c"generated/home/dtcxzyw/WorkSpace/Projects/compilers/llvm-opt-benchmark/bench/libquic/libquic/boringssl/crypto/asn1/a_object.c\00", align 1

; Function Attrs: nounwind uwtable
define hidden ptr @ASN1_OBJECT_new() #0 {
  %1 = alloca ptr, align 8
  %2 = alloca ptr, align 8
  %3 = alloca i32, align 4
  call void @llvm.lifetime.start.p0(i64 8, ptr %2) #7
  %4 = call noalias ptr @malloc(i64 noundef 40) #9
  store ptr %4, ptr %2, align 8, !tbaa !6
  %5 = load ptr, ptr %2, align 8, !tbaa !6
  %6 = icmp eq ptr %5, null
  br i1 %6, label %7, label %8

7:                                                ; preds = %0
  call void @ERR_put_error(i32 noundef 12, i32 noundef 0, i32 noundef 65, ptr noundef @.str, i32 noundef 346)
  store ptr null, ptr %1, align 8
  store i32 1, ptr %3, align 4
  br label %22

8:                                                ; preds = %0
  %9 = load ptr, ptr %2, align 8, !tbaa !6
  %10 = getelementptr inbounds nuw %struct.asn1_object_st, ptr %9, i32 0, i32 3
  store i32 0, ptr %10, align 4, !tbaa !17
  %11 = load ptr, ptr %2, align 8, !tbaa !6
  %12 = getelementptr inbounds nuw %struct.asn1_object_st, ptr %11, i32 0, i32 4
  store ptr null, ptr %12, align 8, !tbaa !13
  %13 = load ptr, ptr %2, align 8, !tbaa !6
  %14 = getelementptr inbounds nuw %struct.asn1_object_st, ptr %13, i32 0, i32 2
  store i32 0, ptr %14, align 8, !tbaa !36
  %15 = load ptr, ptr %2, align 8, !tbaa !6
  %16 = getelementptr inbounds nuw %struct.asn1_object_st, ptr %15, i32 0, i32 0
  store ptr null, ptr %16, align 8, !tbaa !34
  %17 = load ptr, ptr %2, align 8, !tbaa !6
  %18 = getelementptr inbounds nuw %struct.asn1_object_st, ptr %17, i32 0, i32 1
  store ptr null, ptr %18, align 8, !tbaa !35
  %19 = load ptr, ptr %2, align 8, !tbaa !6
  %20 = getelementptr inbounds nuw %struct.asn1_object_st, ptr %19, i32 0, i32 5
  store i32 1, ptr %20, align 8, !tbaa !33
  %21 = load ptr, ptr %2, align 8, !tbaa !6
  store ptr %21, ptr %1, align 8
  store i32 1, ptr %3, align 4
  br label %22

22:                                               ; preds = %8, %7
  call void @llvm.lifetime.end.p0(i64 8, ptr %2) #7
  %23 = load ptr, ptr %1, align 8
  ret ptr %23
}