; Function Attrs: nounwind uwtable
define hidden noalias noundef ptr @ASN1_OBJECT_new() local_unnamed_addr #0 {
  %1 = tail call noalias dereferenceable_or_null(40) ptr @malloc(i64 noundef 40) #11
  %2 = icmp eq ptr %1, null
  br i1 %2, label %3, label %4

3:                                                ; preds = %0
  tail call void @ERR_put_error(i32 noundef 12, i32 noundef 0, i32 noundef 65, ptr noundef nonnull @.str, i32 noundef 346) #9
  br label %6

4:                                                ; preds = %0
  %5 = getelementptr inbounds nuw i8, ptr %1, i64 32
  tail call void @llvm.memset.p0.i64(ptr noundef nonnull align 8 dereferenceable(32) %1, i8 0, i64 32, i1 false)
  store i32 1, ptr %5, align 8, !tbaa !25
  br label %6

6:                                                ; preds = %4, %3
  ret ptr %1
}